target datalayout = "e-m:e-p270:32:32-p271:32:32-p272:64:64-i64:64-i128:128-f80:128-n8:16:32:64-S128"
target triple = "x86_64-pc-linux-gnu"

%struct.bufq = type { ptr, ptr, ptr, ptr, i64, i64, i64, i32 }
%struct.Curl_creader = type { ptr, ptr, ptr, i32 }
%struct.cr_mime_ctx = type { %struct.Curl_creader, ptr, i64, i64, i32, %struct.bufq, i8 }

@.str.62 = private unnamed_addr constant [45 x i8] c"Could only read %ld bytes from the mime post\00", align 1
@.str.63 = private unnamed_addr constant [38 x i8] c"Mime post already completely uploaded\00", align 1

; Function Attrs: nounwind uwtable
define dso_local i64 @Curl_mime_read(ptr noundef %0, i64 noundef %1, i64 noundef %2, ptr noundef %3) #0 {
  %5 = alloca ptr, align 8
  %6 = alloca i64, align 8
  %7 = alloca i64, align 8
  %8 = alloca ptr, align 8
  %9 = alloca ptr, align 8
  %10 = alloca i64, align 8
  %11 = alloca i8, align 1
  store ptr %0, ptr %5, align 8, !tbaa !49
  store i64 %1, ptr %6, align 8, !tbaa !50
  store i64 %2, ptr %7, align 8, !tbaa !50
  store ptr %3, ptr %8, align 8, !tbaa !22
  call void @llvm.lifetime.start.p0(i64 8, ptr %9) #8
  %12 = load ptr, ptr %8, align 8, !tbaa !22
  store ptr %12, ptr %9, align 8, !tbaa !4
  call void @llvm.lifetime.start.p0(i64 8, ptr %10) #8
  call void @llvm.lifetime.start.p0(i64 1, ptr %11) #8
  br label %13

13:                                               ; preds = %18, %4
  store i8 0, ptr %11, align 1, !tbaa !70
  %14 = load ptr, ptr %9, align 8, !tbaa !4
  %15 = load ptr, ptr %5, align 8, !tbaa !49
  %16 = load i64, ptr %7, align 8, !tbaa !50
  %17 = call i64 @readback_part(ptr noundef %14, ptr noundef %15, i64 noundef %16, ptr noundef %11)
  store i64 %17, ptr %10, align 8, !tbaa !50
  br label %18

18:                                               ; preds = %13
  %19 = load i64, ptr %10, align 8, !tbaa !50
  %20 = icmp eq i64 %19, -2
  br i1 %20, label %13, label %21, !llvm.loop !72

21:                                               ; preds = %18
  %22 = load i64, ptr %10, align 8, !tbaa !50
  call void @llvm.lifetime.end.p0(i64 1, ptr %11) #8
  call void @llvm.lifetime.end.p0(i64 8, ptr %10) #8
  call void @llvm.lifetime.end.p0(i64 8, ptr %9) #8
  ret i64 %22
}

; Function Attrs: nounwind uwtable
define internal i32 @cr_mime_resume_from(ptr noundef %0, ptr noundef %1, i64 noundef %2) #0 {
  %4 = alloca i32, align 4
  %5 = alloca ptr, align 8
  %6 = alloca ptr, align 8
  %7 = alloca i64, align 8
  %8 = alloca ptr, align 8
  %9 = alloca i64, align 8
  %10 = alloca [4096 x i8], align 16
  %11 = alloca i64, align 8
  %12 = alloca i64, align 8
  %13 = alloca i32, align 4
  store ptr %0, ptr %5, align 8, !tbaa !43
  store ptr %1, ptr %6, align 8, !tbaa !93
  store i64 %2, ptr %7, align 8, !tbaa !50
  call void @llvm.lifetime.start.p0(i64 8, ptr %8) #8
  %14 = load ptr, ptr %6, align 8, !tbaa !93
  %15 = getelementptr inbounds nuw %struct.Curl_creader, ptr %14, i32 0, i32 2
  %16 = load ptr, ptr %15, align 8, !tbaa !95
  store ptr %16, ptr %8, align 8, !tbaa !98
  %17 = load i64, ptr %7, align 8, !tbaa !50
  %18 = icmp sgt i64 %17, 0
  br i1 %18, label %19, label %81

19:                                               ; preds = %3
  call void @llvm.lifetime.start.p0(i64 8, ptr %9) #8
  store i64 0, ptr %9, align 8, !tbaa !50
  br label %20

20:                                               ; preds = %55, %19
  call void @llvm.lifetime.start.p0(i64 4096, ptr %10) #8
  call void @llvm.lifetime.start.p0(i64 8, ptr %11) #8
  %21 = load i64, ptr %7, align 8, !tbaa !50
  %22 = load i64, ptr %9, align 8, !tbaa !50
  %23 = sub nsw i64 %21, %22
  %24 = icmp sgt i64 %23, 4096
  br i1 %24, label %25, label %26

25:                                               ; preds = %20
  br label %31

26:                                               ; preds = %20
  %27 = load i64, ptr %7, align 8, !tbaa !50
  %28 = load i64, ptr %9, align 8, !tbaa !50
  %29 = sub nsw i64 %27, %28
  %30 = call i64 @curlx_sotouz(i64 noundef %29)
  br label %31

31:                                               ; preds = %26, %25
  %32 = phi i64 [ 4096, %25 ], [ %30, %26 ]
  store i64 %32, ptr %11, align 8, !tbaa !50
  call void @llvm.lifetime.start.p0(i64 8, ptr %12) #8
  %33 = getelementptr inbounds [4096 x i8], ptr %10, i64 0, i64 0
  %34 = load i64, ptr %11, align 8, !tbaa !50
  %35 = load ptr, ptr %8, align 8, !tbaa !98
  %36 = getelementptr inbounds nuw %struct.cr_mime_ctx, ptr %35, i32 0, i32 1
  %37 = load ptr, ptr %36, align 8, !tbaa !100
  %38 = call i64 @Curl_mime_read(ptr noundef %33, i64 noundef 1, i64 noundef %34, ptr noundef %37)
  store i64 %38, ptr %12, align 8, !tbaa !50
  %39 = load i64, ptr %12, align 8, !tbaa !50
  %40 = load i64, ptr %9, align 8, !tbaa !50
  %41 = add nsw i64 %40, %39
  store i64 %41, ptr %9, align 8, !tbaa !50
  %42 = load i64, ptr %12, align 8, !tbaa !50
  %43 = icmp eq i64 %42, 0
  br i1 %43, label %48, label %44

44:                                               ; preds = %31
  %45 = load i64, ptr %12, align 8, !tbaa !50
  %46 = load i64, ptr %11, align 8, !tbaa !50
  %47 = icmp ugt i64 %45, %46
  br i1 %47, label %48, label %51

48:                                               ; preds = %44, %31
  %49 = load ptr, ptr %5, align 8, !tbaa !43
  %50 = load i64, ptr %9, align 8, !tbaa !50
  call void (ptr, ptr, ...) @Curl_failf(ptr noundef %49, ptr noundef @.str.62, i64 noundef %50)
  store i32 26, ptr %4, align 4
  store i32 1, ptr %13, align 4
  br label %52

51:                                               ; preds = %44
  store i32 0, ptr %13, align 4
  br label %52

52:                                               ; preds = %51, %48
  call void @llvm.lifetime.end.p0(i64 8, ptr %12) #8
  call void @llvm.lifetime.end.p0(i64 8, ptr %11) #8
  call void @llvm.lifetime.end.p0(i64 4096, ptr %10) #8
  %53 = load i32, ptr %13, align 4
  switch i32 %53, label %78 [
    i32 0, label %54
  ]

54:                                               ; preds = %52
  br label %55

55:                                               ; preds = %54
  %56 = load i64, ptr %9, align 8, !tbaa !50
  %57 = load i64, ptr %7, align 8, !tbaa !50
  %58 = icmp slt i64 %56, %57
  br i1 %58, label %20, label %59, !llvm.loop !182

59:                                               ; preds = %55
  %60 = load ptr, ptr %8, align 8, !tbaa !98
  %61 = getelementptr inbounds nuw %struct.cr_mime_ctx, ptr %60, i32 0, i32 2
  %62 = load i64, ptr %61, align 8, !tbaa !105
  %63 = icmp sgt i64 %62, 0
  br i1 %63, label %64, label %77

64:                                               ; preds = %59
  %65 = load i64, ptr %7, align 8, !tbaa !50
  %66 = load ptr, ptr %8, align 8, !tbaa !98
  %67 = getelementptr inbounds nuw %struct.cr_mime_ctx, ptr %66, i32 0, i32 2
  %68 = load i64, ptr %67, align 8, !tbaa !105
  %69 = sub nsw i64 %68, %65
  store i64 %69, ptr %67, align 8, !tbaa !105
  %70 = load ptr, ptr %8, align 8, !tbaa !98
  %71 = getelementptr inbounds nuw %struct.cr_mime_ctx, ptr %70, i32 0, i32 2
  %72 = load i64, ptr %71, align 8, !tbaa !105
  %73 = icmp sle i64 %72, 0
  br i1 %73, label %74, label %76

74:                                               ; preds = %64
  %75 = load ptr, ptr %5, align 8, !tbaa !43
  call void (ptr, ptr, ...) @Curl_failf(ptr noundef %75, ptr noundef @.str.63)
  store i32 18, ptr %4, align 4
  store i32 1, ptr %13, align 4
  br label %78

76:                                               ; preds = %64
  br label %77

77:                                               ; preds = %76, %59
  store i32 0, ptr %13, align 4
  br label %78

78:                                               ; preds = %77, %74, %52
  call void @llvm.lifetime.end.p0(i64 8, ptr %9) #8
  %79 = load i32, ptr %13, align 4
  switch i32 %79, label %82 [
    i32 0, label %80
  ]

80:                                               ; preds = %78
  br label %81

81:                                               ; preds = %80, %3
  store i32 0, ptr %4, align 4
  store i32 1, ptr %13, align 4
  br label %82

82:                                               ; preds = %81, %78
  call void @llvm.lifetime.end.p0(i64 8, ptr %8) #8
  %83 = load i32, ptr %4, align 4
  ret i32 %83
}