; Function Attrs: nounwind uwtable
define internal range(i32 0, 27) i32 @cr_mime_resume_from(ptr noundef %0, ptr noundef readonly captures(none) %1, i64 noundef %2) #0 {
  %4 = alloca i8, align 1
  %5 = alloca [4096 x i8], align 16
  %6 = getelementptr inbounds nuw i8, ptr %1, i64 16
  %7 = load ptr, ptr %6, align 8, !tbaa !86
  %8 = icmp sgt i64 %2, 0
  br i1 %8, label %.preheader, label %.thread

.preheader:                                       ; preds = %3
  %9 = getelementptr inbounds nuw i8, ptr %7, i64 32
  br label %10

10:                                               ; preds = %.preheader, %23
  %.027 = phi i64 [ %21, %23 ], [ 0, %.preheader ]
  call void @llvm.lifetime.start.p0(i64 4096, ptr nonnull %5) #18
  %11 = sub nsw i64 %2, %.027
  %12 = icmp sgt i64 %11, 4096
  br i1 %12, label %15, label %13

13:                                               ; preds = %10
  %14 = call i64 @curlx_sotouz(i64 noundef %11) #18
  br label %15

15:                                               ; preds = %10, %13
  %16 = phi i64 [ %14, %13 ], [ 4096, %10 ]
  %17 = load ptr, ptr %9, align 8, !tbaa !89
  call void @llvm.lifetime.start.p0(i64 1, ptr nonnull %4) #18
  br label %18

18:                                               ; preds = %18, %15
  store i8 0, ptr %4, align 1, !tbaa !59
  %19 = call fastcc i64 @readback_part(ptr noundef %17, ptr noundef nonnull %5, i64 noundef %16, ptr noundef %4)
  %20 = icmp eq i64 %19, -2
  br i1 %20, label %18, label %Curl_mime_read.exit, !llvm.loop !61

Curl_mime_read.exit:                              ; preds = %18
  call void @llvm.lifetime.end.p0(i64 1, ptr nonnull %4) #18
  %21 = add nsw i64 %19, %.027
  %22 = add i64 %19, -1
  %or.cond.not = icmp ult i64 %22, %16
  br i1 %or.cond.not, label %23, label %.critedge

.critedge:                                        ; preds = %Curl_mime_read.exit
  call void (ptr, ptr, ...) @Curl_failf(ptr noundef %0, ptr noundef nonnull @.str.62, i64 noundef %21) #18
  call void @llvm.lifetime.end.p0(i64 4096, ptr nonnull %5) #18
  br label %.thread

23:                                               ; preds = %Curl_mime_read.exit
  call void @llvm.lifetime.end.p0(i64 4096, ptr nonnull %5) #18
  %24 = icmp slt i64 %21, %2
  br i1 %24, label %10, label %25, !llvm.loop !167

25:                                               ; preds = %23
  %26 = getelementptr inbounds nuw i8, ptr %7, i64 40
  %27 = load i64, ptr %26, align 8, !tbaa !94
  %28 = icmp sgt i64 %27, 0
  br i1 %28, label %29, label %.thread

29:                                               ; preds = %25
  %30 = sub nsw i64 %27, %2
  store i64 %30, ptr %26, align 8, !tbaa !94
  %31 = icmp slt i64 %30, 1
  br i1 %31, label %32, label %.thread

32:                                               ; preds = %29
  call void (ptr, ptr, ...) @Curl_failf(ptr noundef %0, ptr noundef nonnull @.str.63) #18
  br label %.thread

.thread:                                          ; preds = %25, %29, %3, %32, %.critedge
  %.3 = phi i32 [ 18, %32 ], [ 26, %.critedge ], [ 0, %3 ], [ 0, %29 ], [ 0, %25 ]
  ret i32 %.3
}